; Function Attrs: mustprogress uwtable
define noundef zeroext i1 @_ZNK32pxrInternal_v0_24__pxrReserved__14UsdGeomPrimvar23ValueMightBeTimeVaryingEv(ptr noundef nonnull align 8 dereferenceable(44) %0) local_unnamed_addr #1 align 2 personality ptr @__gxx_personality_v0 {
  %2 = alloca %"class.pxrInternal_v0_24__pxrReserved__::UsdAttribute", align 8
  %3 = tail call noundef zeroext i1 @_ZNK32pxrInternal_v0_24__pxrReserved__14UsdGeomPrimvar9IsIndexedEv(ptr noundef nonnull align 8 dereferenceable(44) %0)
  br i1 %3, label %4, label %60

4:                                                ; preds = %1
  call void @_ZNK32pxrInternal_v0_24__pxrReserved__14UsdGeomPrimvar15_GetIndicesAttrEb(ptr dead_on_unwind nonnull writable sret(%"class.pxrInternal_v0_24__pxrReserved__::UsdAttribute") align 8 %2, ptr noundef nonnull align 8 dereferenceable(44) %0, i1 noundef zeroext false)
  %5 = load i32, ptr %2, align 8
  switch i32 %5, label %_ZNK32pxrInternal_v0_24__pxrReserved__9UsdObjectcvbEv.exit.thread [
    i32 4, label %6
    i32 3, label %6
    i32 1, label %6
  ]

6:                                                ; preds = %4, %4, %4
  %7 = getelementptr inbounds nuw i8, ptr %2, i64 8
  %8 = load ptr, ptr %7, align 8
  %.not.i.i.i = icmp eq ptr %8, null
  br i1 %.not.i.i.i, label %_ZNK32pxrInternal_v0_24__pxrReserved__9UsdObjectcvbEv.exit.thread, label %_ZNK32pxrInternal_v0_24__pxrReserved__18Usd_PrimDataHandlecvbEv.exit.i.i

_ZNK32pxrInternal_v0_24__pxrReserved__18Usd_PrimDataHandlecvbEv.exit.i.i: ; preds = %6
  %9 = getelementptr inbounds nuw i8, ptr %8, i64 56
  %10 = load i64, ptr %9, align 8
  %11 = and i64 %10, 2048
  %.not3.i.i.i = icmp eq i64 %11, 0
  br i1 %.not3.i.i.i, label %12, label %_ZNK32pxrInternal_v0_24__pxrReserved__9UsdObjectcvbEv.exit.thread

12:                                               ; preds = %_ZNK32pxrInternal_v0_24__pxrReserved__18Usd_PrimDataHandlecvbEv.exit.i.i
  %13 = icmp eq i32 %5, 1
  br i1 %13, label %_ZNK32pxrInternal_v0_24__pxrReserved__9UsdObjectcvbEv.exit.thread7, label %14

14:                                               ; preds = %12
  %15 = invoke noundef i32 @_ZNK32pxrInternal_v0_24__pxrReserved__9UsdObject20_GetDefiningSpecTypeEv(ptr noundef nonnull align 8 dereferenceable(32) %2)
          to label %.noexc unwind label %24

.noexc:                                           ; preds = %14
  %16 = load i32, ptr %2, align 8
  %17 = icmp eq i32 %16, 3
  %18 = icmp eq i32 %15, 1
  %or.cond.i.i = and i1 %18, %17
  br i1 %or.cond.i.i, label %_ZNK32pxrInternal_v0_24__pxrReserved__9UsdObjectcvbEv.exit.thread7, label %_ZNK32pxrInternal_v0_24__pxrReserved__9UsdObjectcvbEv.exit

_ZNK32pxrInternal_v0_24__pxrReserved__9UsdObjectcvbEv.exit: ; preds = %.noexc
  %19 = icmp eq i32 %16, 4
  %20 = icmp eq i32 %15, 8
  %21 = and i1 %20, %19
  br i1 %21, label %_ZNK32pxrInternal_v0_24__pxrReserved__9UsdObjectcvbEv.exit.thread7, label %_ZNK32pxrInternal_v0_24__pxrReserved__9UsdObjectcvbEv.exit.thread

_ZNK32pxrInternal_v0_24__pxrReserved__9UsdObjectcvbEv.exit.thread7: ; preds = %.noexc, %12, %_ZNK32pxrInternal_v0_24__pxrReserved__9UsdObjectcvbEv.exit
  %22 = invoke noundef zeroext i1 @_ZNK32pxrInternal_v0_24__pxrReserved__12UsdAttribute23ValueMightBeTimeVaryingEv(ptr noundef nonnull align 8 dereferenceable(32) %2)
          to label %23 unwind label %24

23:                                               ; preds = %_ZNK32pxrInternal_v0_24__pxrReserved__9UsdObjectcvbEv.exit.thread7
  br i1 %22, label %26, label %_ZNK32pxrInternal_v0_24__pxrReserved__9UsdObjectcvbEv.exit.thread

24:                                               ; preds = %14, %_ZNK32pxrInternal_v0_24__pxrReserved__9UsdObjectcvbEv.exit.thread7
  %25 = landingpad { ptr, i32 }
          cleanup
  call void @_ZN32pxrInternal_v0_24__pxrReserved__12UsdAttributeD2Ev(ptr noundef nonnull align 8 dereferenceable(32) %2) #18
  resume { ptr, i32 } %25

_ZNK32pxrInternal_v0_24__pxrReserved__9UsdObjectcvbEv.exit.thread: ; preds = %6, %4, %_ZNK32pxrInternal_v0_24__pxrReserved__18Usd_PrimDataHandlecvbEv.exit.i.i, %23, %_ZNK32pxrInternal_v0_24__pxrReserved__9UsdObjectcvbEv.exit
  br label %26

26:                                               ; preds = %23, %_ZNK32pxrInternal_v0_24__pxrReserved__9UsdObjectcvbEv.exit.thread
  %switch = phi i1 [ true, %_ZNK32pxrInternal_v0_24__pxrReserved__9UsdObjectcvbEv.exit.thread ], [ false, %23 ]
  %27 = getelementptr inbounds nuw i8, ptr %2, i64 24
  %28 = load ptr, ptr %27, align 8
  %29 = ptrtoint ptr %28 to i64
  %30 = and i64 %29, 7
  %.not.i.i.i.i.i = icmp eq i64 %30, 0
  br i1 %.not.i.i.i.i.i, label %_ZN32pxrInternal_v0_24__pxrReserved__7TfTokenD2Ev.exit.i.i.i, label %31

31:                                               ; preds = %26
  %32 = and i64 %29, -8
  %33 = inttoptr i64 %32 to ptr
  %34 = atomicrmw sub ptr %33, i32 2 release, align 4
  br label %_ZN32pxrInternal_v0_24__pxrReserved__7TfTokenD2Ev.exit.i.i.i

_ZN32pxrInternal_v0_24__pxrReserved__7TfTokenD2Ev.exit.i.i.i: ; preds = %31, %26
  %35 = getelementptr inbounds nuw i8, ptr %2, i64 16
  %36 = load i32, ptr %35, align 8
  %.not.i.i1.i.i.i = icmp eq i32 %36, 0
  br i1 %.not.i.i1.i.i.i, label %_ZN32pxrInternal_v0_24__pxrReserved__7SdfPathD2Ev.exit.i.i.i, label %37

37:                                               ; preds = %_ZN32pxrInternal_v0_24__pxrReserved__7TfTokenD2Ev.exit.i.i.i
  %38 = and i32 %36, 255
  %39 = lshr i32 %36, 8
  %40 = zext nneg i32 %38 to i64
  %41 = getelementptr inbounds [257 x ptr], ptr @_ZN32pxrInternal_v0_24__pxrReserved__8Sdf_PoolINS_15Sdf_PathPrimTagELj24ELj8ELj16384EE13_regionStartsE, i64 0, i64 %40
  %42 = load ptr, ptr %41, align 8
  %43 = mul nuw nsw i32 %39, 24
  %44 = zext nneg i32 %43 to i64
  %45 = getelementptr inbounds i8, ptr %42, i64 %44
  %46 = getelementptr inbounds nuw i8, ptr %45, i64 8
  %47 = atomicrmw sub ptr %46, i32 1 seq_cst, align 4
  %48 = and i32 %47, 2147483647
  %49 = icmp eq i32 %48, 1
  br i1 %49, label %50, label %_ZN32pxrInternal_v0_24__pxrReserved__7SdfPathD2Ev.exit.i.i.i

50:                                               ; preds = %37
  invoke void @_ZNK32pxrInternal_v0_24__pxrReserved__12Sdf_PathNode8_DestroyEv(ptr noundef nonnull align 8 dereferenceable(16) %45)
          to label %_ZN32pxrInternal_v0_24__pxrReserved__7SdfPathD2Ev.exit.i.i.i unwind label %51

51:                                               ; preds = %50
  %52 = landingpad { ptr, i32 }
          catch ptr null
  %53 = extractvalue { ptr, i32 } %52, 0
  call void @__clang_call_terminate(ptr %53) #22
  unreachable

_ZN32pxrInternal_v0_24__pxrReserved__7SdfPathD2Ev.exit.i.i.i: ; preds = %50, %37, %_ZN32pxrInternal_v0_24__pxrReserved__7TfTokenD2Ev.exit.i.i.i
  %54 = getelementptr inbounds nuw i8, ptr %2, i64 8
  %55 = load ptr, ptr %54, align 8
  %.not.i.i.i.i.i.i = icmp eq ptr %55, null
  br i1 %.not.i.i.i.i.i.i, label %_ZN32pxrInternal_v0_24__pxrReserved__12UsdAttributeD2Ev.exit, label %56

56:                                               ; preds = %_ZN32pxrInternal_v0_24__pxrReserved__7SdfPathD2Ev.exit.i.i.i
  %57 = getelementptr inbounds nuw i8, ptr %55, i64 48
  %58 = atomicrmw sub ptr %57, i64 1 release, align 8
  %.not1.i.i.i.i.i.i = icmp eq i64 %58, 1
  br i1 %.not1.i.i.i.i.i.i, label %59, label %_ZN32pxrInternal_v0_24__pxrReserved__12UsdAttributeD2Ev.exit

59:                                               ; preds = %56
  call void @_ZN32pxrInternal_v0_24__pxrReserved__12Usd_PrimDataD1Ev(ptr noundef nonnull align 8 dereferenceable(64) %55) #18
  call void @_ZdlPvm(ptr noundef nonnull %55, i64 noundef 64) #21
  br label %_ZN32pxrInternal_v0_24__pxrReserved__12UsdAttributeD2Ev.exit

_ZN32pxrInternal_v0_24__pxrReserved__12UsdAttributeD2Ev.exit: ; preds = %_ZN32pxrInternal_v0_24__pxrReserved__7SdfPathD2Ev.exit.i.i.i, %56, %59
  br i1 %switch, label %60, label %62

60:                                               ; preds = %_ZN32pxrInternal_v0_24__pxrReserved__12UsdAttributeD2Ev.exit, %1
  %61 = call noundef zeroext i1 @_ZNK32pxrInternal_v0_24__pxrReserved__12UsdAttribute23ValueMightBeTimeVaryingEv(ptr noundef nonnull align 8 dereferenceable(32) %0)
  br label %62

62:                                               ; preds = %_ZN32pxrInternal_v0_24__pxrReserved__12UsdAttributeD2Ev.exit, %60
  %.1 = phi i1 [ true, %_ZN32pxrInternal_v0_24__pxrReserved__12UsdAttributeD2Ev.exit ], [ %61, %60 ]
  ret i1 %.1
}